	.cpu cortex-m0
	.fpu softvfp
	.eabi_attribute 20, 1
	.eabi_attribute 21, 1
	.eabi_attribute 23, 3
	.eabi_attribute 24, 1
	.eabi_attribute 25, 1
	.eabi_attribute 26, 1
	.eabi_attribute 30, 6
	.eabi_attribute 34, 0
	.eabi_attribute 18, 4
	.code	16
	.file	"main.c"
	.text
.Ltext0:
	.cfi_sections	.debug_frame
	.align	2
	.global	main
	.code	16
	.thumb_func
	.type	main, %function
main:
.LFB33:
	.file 1 "main.c"
	.loc 1 21 0
	.cfi_startproc
	push	{r7, lr}
	.cfi_def_cfa_offset 8
	.cfi_offset 7, -8
	.cfi_offset 14, -4
	add	r7, sp, #0
	.cfi_def_cfa_register 7
	.loc 1 23 0
	bl	initLEDs
	.loc 1 24 0
	bl	initPB
	.loc 1 25 0
	mov	r0, #1
	bl	initADCPot
.L4:
	.loc 1 32 0
	mov	r0, #3
	bl	getPB
	mov	r3, r0
	cmp	r3, #0
	beq	.L2
	.loc 1 33 0
	mov	r3, #1
	neg	r3, r3
	mov	r0, r3
	bl	incrementLEDs
	b	.L3
.L2:
	.loc 1 36 0
	mov	r0, #1
	bl	incrementLEDs
.L3:
	.loc 1 38 0
	bl	variable_delay
	.loc 1 39 0
	b	.L4
	.cfi_endproc
.LFE33:
	.size	main, .-main
	.align	2
	.global	variable_delay
	.code	16
	.thumb_func
	.type	variable_delay, %function
variable_delay:
.LFB34:
	.loc 1 43 0
	.cfi_startproc
	push	{r7, lr}
	.cfi_def_cfa_offset 8
	.cfi_offset 7, -8
	.cfi_offset 14, -4
	sub	sp, sp, #8
	.cfi_def_cfa_offset 16
	add	r7, sp, #0
	.cfi_def_cfa_register 7
	.loc 1 44 0
	ldr	r3, .L7
	str	r3, [r7, #4]
	.loc 1 45 0
	mov	r0, #2
	bl	getPB
	mov	r3, r0
	cmp	r3, #0
	beq	.L6
	.loc 1 46 0
	bl	getPot
	mov	r3, r0
	add	r3, r3, #250
	lsl	r3, r3, #2
	str	r3, [r7, #4]
.L6:
	.loc 1 49 0
	ldr	r3, [r7, #4]
	mov	r0, r3
	bl	delay
	.loc 1 50 0
	mov	sp, r7
	add	sp, sp, #8
	@ sp needed
	pop	{r7, pc}
.L8:
	.align	2
.L7:
	.word	5000
	.cfi_endproc
.LFE34:
	.size	variable_delay, .-variable_delay
	.align	2
	.global	delay
	.code	16
	.thumb_func
	.type	delay, %function
delay:
.LFB35:
	.loc 1 54 0
	.cfi_startproc
	push	{r7, lr}
	.cfi_def_cfa_offset 8
	.cfi_offset 7, -8
	.cfi_offset 14, -4
	sub	sp, sp, #16
	.cfi_def_cfa_offset 24
	add	r7, sp, #0
	.cfi_def_cfa_register 7
	str	r0, [r7, #4]
	.loc 1 56 0
	ldr	r2, [r7, #4]
	mov	r3, r2
	lsl	r3, r3, #5
	sub	r3, r3, r2
	lsl	r3, r3, #1
	str	r3, [r7, #4]
	.loc 1 57 0
	mov	r3, #0
	str	r3, [r7, #12]
	b	.L10
.L11:
	.loc 1 58 0
	ldr	r3, [r7, #12]
	add	r3, r3, #1
	str	r3, [r7, #12]
.L10:
	.loc 1 57 0 discriminator 1
	ldr	r2, [r7, #12]
	ldr	r3, [r7, #4]
	cmp	r2, r3
	bls	.L11
	.loc 1 60 0
	mov	sp, r7
	add	sp, sp, #16
	@ sp needed
	pop	{r7, pc}
	.cfi_endproc
.LFE35:
	.size	delay, .-delay
	.align	2
	.global	initLEDs
	.code	16
	.thumb_func
	.type	initLEDs, %function
initLEDs:
.LFB36:
	.loc 1 62 0
	.cfi_startproc
	push	{r7, lr}
	.cfi_def_cfa_offset 8
	.cfi_offset 7, -8
	.cfi_offset 14, -4
	add	r7, sp, #0
	.cfi_def_cfa_register 7
	.loc 1 63 0
	ldr	r3, .L13
	ldr	r2, .L13
	ldr	r2, [r2, #20]
	mov	r1, #128
	lsl	r1, r1, #11
	orr	r2, r1
	str	r2, [r3, #20]
	.loc 1 64 0
	ldr	r3, .L13+4
	ldr	r2, .L13+4
	ldr	r2, [r2]
	mov	r1, #1
	orr	r2, r1
	str	r2, [r3]
	.loc 1 65 0
	ldr	r3, .L13+4
	ldr	r2, .L13+4
	ldr	r2, [r2]
	mov	r1, #4
	orr	r2, r1
	str	r2, [r3]
	.loc 1 66 0
	ldr	r3, .L13+4
	ldr	r2, .L13+4
	ldr	r2, [r2]
	mov	r1, #16
	orr	r2, r1
	str	r2, [r3]
	.loc 1 67 0
	ldr	r3, .L13+4
	ldr	r2, .L13+4
	ldr	r2, [r2]
	mov	r1, #64
	orr	r2, r1
	str	r2, [r3]
	.loc 1 68 0
	ldr	r3, .L13+4
	ldr	r2, .L13+4
	ldr	r2, [r2]
	mov	r1, #128
	lsl	r1, r1, #1
	orr	r2, r1
	str	r2, [r3]
	.loc 1 69 0
	ldr	r3, .L13+4
	ldr	r2, .L13+4
	ldr	r2, [r2]
	mov	r1, #128
	lsl	r1, r1, #3
	orr	r2, r1
	str	r2, [r3]
	.loc 1 70 0
	ldr	r3, .L13+4
	ldr	r2, .L13+4
	ldr	r2, [r2]
	mov	r1, #128
	lsl	r1, r1, #5
	orr	r2, r1
	str	r2, [r3]
	.loc 1 71 0
	ldr	r3, .L13+4
	ldr	r2, .L13+4
	ldr	r2, [r2]
	mov	r1, #128
	lsl	r1, r1, #7
	orr	r2, r1
	str	r2, [r3]
	.loc 1 73 0
	mov	sp, r7
	@ sp needed
	pop	{r7, pc}
.L14:
	.align	2
.L13:
	.word	1073876992
	.word	1207960576
	.cfi_endproc
.LFE36:
	.size	initLEDs, .-initLEDs
	.align	2
	.global	initPB
	.code	16
	.thumb_func
	.type	initPB, %function
initPB:
.LFB37:
	.loc 1 75 0
	.cfi_startproc
	push	{r7, lr}
	.cfi_def_cfa_offset 8
	.cfi_offset 7, -8
	.cfi_offset 14, -4
	add	r7, sp, #0
	.cfi_def_cfa_register 7
	.loc 1 76 0
	ldr	r3, .L16
	ldr	r2, .L16
	ldr	r2, [r2, #20]
	mov	r1, #128
	lsl	r1, r1, #10
	orr	r2, r1
	str	r2, [r3, #20]
	.loc 1 77 0
	mov	r3, #144
	lsl	r3, r3, #23
	mov	r2, #144
	lsl	r2, r2, #23
	ldr	r2, [r2, #12]
	mov	r1, #1
	orr	r2, r1
	str	r2, [r3, #12]
	.loc 1 78 0
	mov	r3, #144
	lsl	r3, r3, #23
	mov	r2, #144
	lsl	r2, r2, #23
	ldr	r2, [r2, #12]
	mov	r1, #4
	orr	r2, r1
	str	r2, [r3, #12]
	.loc 1 79 0
	mov	r3, #144
	lsl	r3, r3, #23
	mov	r2, #144
	lsl	r2, r2, #23
	ldr	r2, [r2, #12]
	mov	r1, #16
	orr	r2, r1
	str	r2, [r3, #12]
	.loc 1 80 0
	mov	r3, #144
	lsl	r3, r3, #23
	mov	r2, #144
	lsl	r2, r2, #23
	ldr	r2, [r2, #12]
	mov	r1, #64
	orr	r2, r1
	str	r2, [r3, #12]
	.loc 1 81 0
	mov	sp, r7
	@ sp needed
	pop	{r7, pc}
.L17:
	.align	2
.L16:
	.word	1073876992
	.cfi_endproc
.LFE37:
	.size	initPB, .-initPB
	.align	2
	.global	initADCPot
	.code	16
	.thumb_func
	.type	initADCPot, %function
initADCPot:
.LFB38:
	.loc 1 83 0
	.cfi_startproc
	push	{r7, lr}
	.cfi_def_cfa_offset 8
	.cfi_offset 7, -8
	.cfi_offset 14, -4
	sub	sp, sp, #8
	.cfi_def_cfa_offset 16
	add	r7, sp, #0
	.cfi_def_cfa_register 7
	str	r0, [r7, #4]
	.loc 1 84 0
	ldr	r3, .L22
	ldr	r2, .L22
	ldr	r2, [r2, #20]
	mov	r1, #128
	lsl	r1, r1, #10
	orr	r2, r1
	str	r2, [r3, #20]
	.loc 1 85 0
	ldr	r3, .L22
	ldr	r2, .L22
	ldr	r2, [r2, #24]
	mov	r1, #128
	lsl	r1, r1, #2
	orr	r2, r1
	str	r2, [r3, #24]
	.loc 1 86 0
	ldr	r3, .L22+4
	ldr	r2, .L22+4
	ldr	r2, [r2, #8]
	mov	r1, #1
	orr	r2, r1
	str	r2, [r3, #8]
	.loc 1 87 0
	mov	r8, r8
.L19:
	.loc 1 87 0 is_stmt 0 discriminator 1
	ldr	r3, .L22+4
	ldr	r3, [r3]
	cmp	r3, #0
	beq	.L19
	.loc 1 89 0 is_stmt 1
	ldr	r3, [r7, #4]
	cmp	r3, #0
	bne	.L20
	.loc 1 90 0
	mov	r3, #144
	lsl	r3, r3, #23
	mov	r2, #144
	lsl	r2, r2, #23
	ldr	r2, [r2]
	mov	r1, #192
	lsl	r1, r1, #4
	orr	r2, r1
	str	r2, [r3]
	.loc 1 91 0
	ldr	r3, .L22+4
	ldr	r2, .L22+4
	ldr	r2, [r2, #40]
	mov	r1, #32
	orr	r2, r1
	str	r2, [r3, #40]
	b	.L21
.L20:
	.loc 1 94 0
	ldr	r3, [r7, #4]
	cmp	r3, #1
	bne	.L21
	.loc 1 95 0
	mov	r3, #144
	lsl	r3, r3, #23
	mov	r2, #144
	lsl	r2, r2, #23
	ldr	r2, [r2]
	mov	r1, #192
	lsl	r1, r1, #6
	orr	r2, r1
	str	r2, [r3]
	.loc 1 96 0
	ldr	r3, .L22+4
	ldr	r2, .L22+4
	ldr	r2, [r2, #40]
	mov	r1, #64
	orr	r2, r1
	str	r2, [r3, #40]
.L21:
	.loc 1 99 0
	ldr	r3, .L22+4
	ldr	r2, .L22+4
	ldr	r2, [r2, #12]
	mov	r1, #8
	orr	r2, r1
	str	r2, [r3, #12]
	.loc 1 100 0
	mov	sp, r7
	add	sp, sp, #8
	@ sp needed
	pop	{r7, pc}
.L23:
	.align	2
.L22:
	.word	1073876992
	.word	1073816576
	.cfi_endproc
.LFE38:
	.size	initADCPot, .-initADCPot
	.align	2
	.global	incrementLEDs
	.code	16
	.thumb_func
	.type	incrementLEDs, %function
incrementLEDs:
.LFB39:
	.loc 1 102 0
	.cfi_startproc
	push	{r7, lr}
	.cfi_def_cfa_offset 8
	.cfi_offset 7, -8
	.cfi_offset 14, -4
	sub	sp, sp, #16
	.cfi_def_cfa_offset 24
	add	r7, sp, #0
	.cfi_def_cfa_register 7
	mov	r2, r0
	add	r3, r7, #7
	strb	r2, [r3]
	.loc 1 103 0
	ldr	r3, .L25
	ldrh	r3, [r3, #20]
	uxth	r2, r3
	mov	r3, r7
	add	r3, r3, #15
	strb	r2, [r3]
	.loc 1 104 0
	ldr	r3, .L25
	add	r2, r7, #7
	ldrb	r2, [r2]
	sxtb	r2, r2
	uxth	r1, r2
	mov	r2, r7
	add	r2, r2, #15
	ldrb	r2, [r2]
	sxtb	r2, r2
	uxth	r2, r2
	add	r2, r1, r2
	uxth	r2, r2
	uxth	r2, r2
	strh	r2, [r3, #20]
	.loc 1 105 0
	mov	sp, r7
	add	sp, sp, #16
	@ sp needed
	pop	{r7, pc}
.L26:
	.align	2
.L25:
	.word	1207960576
	.cfi_endproc
.LFE39:
	.size	incrementLEDs, .-incrementLEDs
	.align	2
	.global	getPot
	.code	16
	.thumb_func
	.type	getPot, %function
getPot:
.LFB40:
	.loc 1 107 0
	.cfi_startproc
	push	{r7, lr}
	.cfi_def_cfa_offset 8
	.cfi_offset 7, -8
	.cfi_offset 14, -4
	sub	sp, sp, #8
	.cfi_def_cfa_offset 16
	add	r7, sp, #0
	.cfi_def_cfa_register 7
	.loc 1 108 0
	add	r3, r7, #6
	mov	r2, #0
	strh	r2, [r3]
	.loc 1 109 0
	ldr	r3, .L30
	ldr	r2, .L30
	ldr	r2, [r2, #8]
	mov	r1, #4
	orr	r2, r1
	str	r2, [r3, #8]
	.loc 1 110 0
	mov	r8, r8
.L28:
	.loc 1 110 0 is_stmt 0 discriminator 1
	ldr	r3, .L30
	ldr	r3, [r3, #4]
	cmp	r3, #0
	bne	.L28
	.loc 1 111 0 is_stmt 1
	ldr	r3, .L30
	ldr	r2, [r3, #64]
	add	r3, r7, #6
	strh	r2, [r3]
	.loc 1 113 0
	add	r3, r7, #6
	ldrh	r3, [r3]
	sxth	r3, r3
	.loc 1 114 0
	mov	r0, r3
	mov	sp, r7
	add	sp, sp, #8
	@ sp needed
	pop	{r7, pc}
.L31:
	.align	2
.L30:
	.word	1073816576
	.cfi_endproc
.LFE40:
	.size	getPot, .-getPot
	.align	2
	.global	getPB
	.code	16
	.thumb_func
	.type	getPB, %function
getPB:
.LFB41:
	.loc 1 116 0
	.cfi_startproc
	push	{r7, lr}
	.cfi_def_cfa_offset 8
	.cfi_offset 7, -8
	.cfi_offset 14, -4
	sub	sp, sp, #16
	.cfi_def_cfa_offset 24
	add	r7, sp, #0
	.cfi_def_cfa_register 7
	str	r0, [r7, #4]
	.loc 1 117 0
	mov	r3, r7
	add	r3, r3, #15
	mov	r2, #0
	strb	r2, [r3]
	.loc 1 118 0
	ldr	r3, [r7, #4]
	cmp	r3, #0
	bne	.L33
	.loc 1 119 0
	mov	r3, #144
	lsl	r3, r3, #23
	ldrh	r3, [r3, #16]
	uxth	r3, r3
	mov	r2, r3
	mov	r3, #1
	and	r3, r2
	neg	r2, r3
	adc	r3, r3, r2
	uxtb	r2, r3
	mov	r3, r7
	add	r3, r3, #15
	strb	r2, [r3]
	b	.L34
.L33:
	.loc 1 121 0
	ldr	r3, [r7, #4]
	cmp	r3, #1
	bne	.L35
	.loc 1 122 0
	mov	r3, #144
	lsl	r3, r3, #23
	ldrh	r3, [r3, #16]
	uxth	r3, r3
	uxtb	r3, r3
	mvn	r3, r3
	uxtb	r2, r3
	mov	r3, r7
	add	r3, r3, #15
	add	r1, r2, #0
	mov	r2, #2
	and	r2, r1
	strb	r2, [r3]
	b	.L34
.L35:
	.loc 1 124 0
	ldr	r3, [r7, #4]
	cmp	r3, #2
	bne	.L36
	.loc 1 125 0
	mov	r3, #144
	lsl	r3, r3, #23
	ldrh	r3, [r3, #16]
	uxth	r3, r3
	uxtb	r3, r3
	mvn	r3, r3
	uxtb	r2, r3
	mov	r3, r7
	add	r3, r3, #15
	add	r1, r2, #0
	mov	r2, #4
	and	r2, r1
	strb	r2, [r3]
	b	.L34
.L36:
	.loc 1 127 0
	ldr	r3, [r7, #4]
	cmp	r3, #3
	bne	.L34
	.loc 1 128 0
	mov	r3, #144
	lsl	r3, r3, #23
	ldrh	r3, [r3, #16]
	uxth	r3, r3
	uxtb	r3, r3
	mvn	r3, r3
	uxtb	r2, r3
	mov	r3, r7
	add	r3, r3, #15
	add	r1, r2, #0
	mov	r2, #8
	and	r2, r1
	strb	r2, [r3]
.L34:
	.loc 1 131 0
	mov	r3, r7
	add	r3, r3, #15
	ldrb	r3, [r3]
	sxtb	r3, r3
	.loc 1 132 0
	mov	r0, r3
	mov	sp, r7
	add	sp, sp, #16
	@ sp needed
	pop	{r7, pc}
	.cfi_endproc
.LFE41:
	.size	getPB, .-getPB
.Letext0:
	.file 2 "c:\\program files\\gnu tools arm embedded\\4.8 2014q2\\arm-none-eabi\\include\\machine\\_default_types.h"
	.file 3 "c:\\program files\\gnu tools arm embedded\\4.8 2014q2\\arm-none-eabi\\include\\stdint.h"
	.file 4 "./Libraries/stm32f0xx.h"