	.cpu cortex-m0
	.fpu softvfp
	.eabi_attribute 20, 1
	.eabi_attribute 21, 1
	.eabi_attribute 23, 3
	.eabi_attribute 24, 1
	.eabi_attribute 25, 1
	.eabi_attribute 26, 1
	.eabi_attribute 30, 6
	.eabi_attribute 34, 0
	.eabi_attribute 18, 4
	.code	16
	.file	"lcd_stm32f0.c"
	.text
.Ltext0:
	.cfi_sections	.debug_frame
	.align	2
	.global	lcd_string
	.code	16
	.thumb_func
	.type	lcd_string, %function
lcd_string:
.LFB33:
	.file 1 "lcd_stm32f0.c"
	.loc 1 27 0
	.cfi_startproc
	push	{r7, lr}
	.cfi_def_cfa_offset 8
	.cfi_offset 7, -8
	.cfi_offset 14, -4
	sub	sp, sp, #16
	.cfi_def_cfa_offset 24
	add	r7, sp, #0
	.cfi_def_cfa_register 7
	str	r0, [r7, #4]
	.loc 1 28 0
	mov	r3, #0
	str	r3, [r7, #12]
	.loc 1 29 0
	b	.L2
.L3:
	.loc 1 30 0
	ldr	r2, [r7, #4]
	ldr	r3, [r7, #12]
	add	r3, r2, r3
	ldrb	r3, [r3]
	mov	r0, r3
	mov	r1, #1
	bl	lcd_put
	.loc 1 31 0
	ldr	r3, [r7, #12]
	add	r3, r3, #1
	str	r3, [r7, #12]
.L2:
	.loc 1 29 0
	ldr	r2, [r7, #4]
	ldr	r3, [r7, #12]
	add	r3, r2, r3
	ldrb	r3, [r3]
	cmp	r3, #0
	bne	.L3
	.loc 1 33 0
	mov	sp, r7
	add	sp, sp, #16
	@ sp needed
	pop	{r7, pc}
	.cfi_endproc
.LFE33:
	.size	lcd_string, .-lcd_string
	.align	2
	.global	lcd_two_line_write
	.code	16
	.thumb_func
	.type	lcd_two_line_write, %function
lcd_two_line_write:
.LFB34:
	.loc 1 34 0
	.cfi_startproc
	push	{r7, lr}
	.cfi_def_cfa_offset 8
	.cfi_offset 7, -8
	.cfi_offset 14, -4
	sub	sp, sp, #8
	.cfi_def_cfa_offset 16
	add	r7, sp, #0
	.cfi_def_cfa_register 7
	str	r0, [r7, #4]
	str	r1, [r7]
	.loc 1 35 0
	mov	r0, #1
	bl	lcd_command
	.loc 1 36 0
	ldr	r3, [r7, #4]
	mov	r0, r3
	bl	lcd_string
	.loc 1 37 0
	mov	r0, #192
	bl	lcd_command
	.loc 1 38 0
	ldr	r3, [r7]
	mov	r0, r3
	bl	lcd_string
	.loc 1 39 0
	mov	sp, r7
	add	sp, sp, #8
	@ sp needed
	pop	{r7, pc}
	.cfi_endproc
.LFE34:
	.size	lcd_two_line_write, .-lcd_two_line_write
	.align	2
	.global	lcd_init
	.code	16
	.thumb_func
	.type	lcd_init, %function
lcd_init:
.LFB35:
	.loc 1 43 0
	.cfi_startproc
	push	{r7, lr}
	.cfi_def_cfa_offset 8
	.cfi_offset 7, -8
	.cfi_offset 14, -4
	add	r7, sp, #0
	.cfi_def_cfa_register 7
	.loc 1 48 0
	ldr	r3, .L6
	mov	r0, r3
	bl	delay
	.loc 1 50 0
	ldr	r3, .L6+4
	ldr	r2, .L6+4
	ldr	r2, [r2, #20]
	mov	r1, #128
	lsl	r1, r1, #12
	orr	r2, r1
	str	r2, [r3, #20]
	.loc 1 51 0
	ldr	r3, .L6+4
	ldr	r2, .L6+4
	ldr	r2, [r2, #20]
	mov	r1, #128
	lsl	r1, r1, #11
	orr	r2, r1
	str	r2, [r3, #20]
	.loc 1 52 0
	ldr	r3, .L6+4
	ldr	r2, .L6+4
	ldr	r2, [r2, #20]
	mov	r1, #128
	lsl	r1, r1, #10
	orr	r2, r1
	str	r2, [r3, #20]
	.loc 1 53 0
	ldr	r3, .L6+8
	ldr	r2, .L6+8
	ldr	r2, [r2]
	mov	r1, #128
	lsl	r1, r1, #21
	orr	r2, r1
	str	r2, [r3]
	.loc 1 54 0
	ldr	r3, .L6+8
	ldr	r2, .L6+8
	ldr	r2, [r2]
	mov	r1, #128
	lsl	r1, r1, #23
	orr	r2, r1
	str	r2, [r3]
	.loc 1 55 0
	ldr	r3, .L6+12
	ldr	r2, .L6+12
	ldr	r2, [r2]
	mov	r1, #128
	lsl	r1, r1, #9
	orr	r2, r1
	str	r2, [r3]
	.loc 1 56 0
	ldr	r3, .L6+12
	ldr	r2, .L6+12
	ldr	r2, [r2]
	mov	r1, #128
	lsl	r1, r1, #11
	orr	r2, r1
	str	r2, [r3]
	.loc 1 57 0
	mov	r3, #144
	lsl	r3, r3, #23
	mov	r2, #144
	lsl	r2, r2, #23
	ldr	r2, [r2]
	mov	r1, #128
	lsl	r1, r1, #17
	orr	r2, r1
	str	r2, [r3]
	.loc 1 58 0
	mov	r3, #144
	lsl	r3, r3, #23
	mov	r2, #144
	lsl	r2, r2, #23
	ldr	r2, [r2]
	mov	r1, #128
	lsl	r1, r1, #23
	orr	r2, r1
	str	r2, [r3]
	.loc 1 60 0
	mov	r0, #51
	bl	lcd_command
	.loc 1 61 0
	mov	r0, #51
	bl	lcd_command
	.loc 1 62 0
	mov	r0, #50
	bl	lcd_command
	.loc 1 63 0
	mov	r0, #12
	bl	lcd_command
	.loc 1 64 0
	mov	r0, #40
	bl	lcd_command
	.loc 1 65 0
	mov	r0, #1
	bl	lcd_command
	.loc 1 66 0
	mov	sp, r7
	@ sp needed
	pop	{r7, pc}
.L7:
	.align	2
.L6:
	.word	30000
	.word	1073876992
	.word	1207961600
	.word	1207960576
	.cfi_endproc
.LFE35:
	.size	lcd_init, .-lcd_init
	.align	2
	.global	lcd_command
	.code	16
	.thumb_func
	.type	lcd_command, %function
lcd_command:
.LFB36:
	.loc 1 70 0
	.cfi_startproc
	push	{r7, lr}
	.cfi_def_cfa_offset 8
	.cfi_offset 7, -8
	.cfi_offset 14, -4
	sub	sp, sp, #8
	.cfi_def_cfa_offset 16
	add	r7, sp, #0
	.cfi_def_cfa_register 7
	mov	r2, r0
	add	r3, r7, #7
	strb	r2, [r3]
	.loc 1 73 0
	add	r3, r7, #7
	ldrb	r3, [r3]
	mov	r0, r3
	mov	r1, #0
	bl	lcd_put
	.loc 1 74 0
	ldr	r3, .L9
	mov	r0, r3
	bl	delay
	.loc 1 75 0
	mov	sp, r7
	add	sp, sp, #8
	@ sp needed
	pop	{r7, pc}
.L10:
	.align	2
.L9:
	.word	3000
	.cfi_endproc
.LFE36:
	.size	lcd_command, .-lcd_command
	.align	2
	.code	16
	.thumb_func
	.type	lcd_put, %function
lcd_put:
.LFB37:
	.loc 1 79 0
	.cfi_startproc
	push	{r7, lr}
	.cfi_def_cfa_offset 8
	.cfi_offset 7, -8
	.cfi_offset 14, -4
	sub	sp, sp, #8
	.cfi_def_cfa_offset 16
	add	r7, sp, #0
	.cfi_def_cfa_register 7
	mov	r2, r0
	add	r3, r7, #7
	strb	r2, [r3]
	add	r3, r7, #6
	add	r2, r1, #0
	strb	r2, [r3]
	.loc 1 84 0
	add	r3, r7, #6
	ldrb	r3, [r3]
	cmp	r3, #1
	bne	.L12
	.loc 1 85 0
	ldr	r3, .L30
	ldr	r2, .L30
	ldr	r2, [r2, #24]
	mov	r1, #128
	lsl	r1, r1, #7
	orr	r2, r1
	str	r2, [r3, #24]
	b	.L13
.L12:
	.loc 1 86 0
	add	r3, r7, #6
	ldrb	r3, [r3]
	cmp	r3, #0
	bne	.L13
	.loc 1 87 0
	ldr	r3, .L30
	ldr	r2, .L30
	ldr	r2, [r2, #24]
	mov	r1, #128
	lsl	r1, r1, #23
	orr	r2, r1
	str	r2, [r3, #24]
.L13:
	.loc 1 90 0
	add	r3, r7, #7
	ldrb	r3, [r3]
	sxtb	r3, r3
	cmp	r3, #0
	bge	.L14
	.loc 1 91 0
	mov	r3, #144
	lsl	r3, r3, #23
	mov	r2, #144
	lsl	r2, r2, #23
	ldr	r2, [r2, #24]
	mov	r1, #128
	lsl	r1, r1, #8
	orr	r2, r1
	str	r2, [r3, #24]
	b	.L15
.L14:
	.loc 1 93 0
	mov	r3, #144
	lsl	r3, r3, #23
	mov	r2, #144
	lsl	r2, r2, #23
	ldr	r2, [r2, #24]
	mov	r1, #128
	lsl	r1, r1, #24
	orr	r2, r1
	str	r2, [r3, #24]
.L15:
	.loc 1 95 0
	add	r3, r7, #7
	ldrb	r3, [r3]
	mov	r2, #64
	and	r3, r2
	beq	.L16
	.loc 1 96 0
	mov	r3, #144
	lsl	r3, r3, #23
	mov	r2, #144
	lsl	r2, r2, #23
	ldr	r2, [r2, #24]
	mov	r1, #128
	lsl	r1, r1, #5
	orr	r2, r1
	str	r2, [r3, #24]
	b	.L17
.L16:
	.loc 1 98 0
	mov	r3, #144
	lsl	r3, r3, #23
	mov	r2, #144
	lsl	r2, r2, #23
	ldr	r2, [r2, #24]
	mov	r1, #128
	lsl	r1, r1, #21
	orr	r2, r1
	str	r2, [r3, #24]
.L17:
	.loc 1 100 0
	add	r3, r7, #7
	ldrb	r3, [r3]
	mov	r2, #32
	and	r3, r2
	beq	.L18
	.loc 1 101 0
	ldr	r3, .L30+4
	ldr	r2, .L30+4
	ldr	r2, [r2, #24]
	mov	r1, #128
	lsl	r1, r1, #2
	orr	r2, r1
	str	r2, [r3, #24]
	b	.L19
.L18:
	.loc 1 103 0
	ldr	r3, .L30+4
	ldr	r2, .L30+4
	ldr	r2, [r2, #24]
	mov	r1, #128
	lsl	r1, r1, #18
	orr	r2, r1
	str	r2, [r3, #24]
.L19:
	.loc 1 105 0
	add	r3, r7, #7
	ldrb	r3, [r3]
	mov	r2, #16
	and	r3, r2
	beq	.L20
	.loc 1 106 0
	ldr	r3, .L30+4
	ldr	r2, .L30+4
	ldr	r2, [r2, #24]
	mov	r1, #128
	lsl	r1, r1, #1
	orr	r2, r1
	str	r2, [r3, #24]
	b	.L21
.L20:
	.loc 1 108 0
	ldr	r3, .L30+4
	ldr	r2, .L30+4
	ldr	r2, [r2, #24]
	mov	r1, #128
	lsl	r1, r1, #17
	orr	r2, r1
	str	r2, [r3, #24]
.L21:
	.loc 1 110 0
	bl	pulse_strobe
	.loc 1 112 0
	add	r3, r7, #7
	ldrb	r3, [r3]
	mov	r2, #8
	and	r3, r2
	beq	.L22
	.loc 1 113 0
	mov	r3, #144
	lsl	r3, r3, #23
	mov	r2, #144
	lsl	r2, r2, #23
	ldr	r2, [r2, #24]
	mov	r1, #128
	lsl	r1, r1, #8
	orr	r2, r1
	str	r2, [r3, #24]
	b	.L23
.L22:
	.loc 1 115 0
	mov	r3, #144
	lsl	r3, r3, #23
	mov	r2, #144
	lsl	r2, r2, #23
	ldr	r2, [r2, #24]
	mov	r1, #128
	lsl	r1, r1, #24
	orr	r2, r1
	str	r2, [r3, #24]
.L23:
	.loc 1 117 0
	add	r3, r7, #7
	ldrb	r3, [r3]
	mov	r2, #4
	and	r3, r2
	beq	.L24
	.loc 1 118 0
	mov	r3, #144
	lsl	r3, r3, #23
	mov	r2, #144
	lsl	r2, r2, #23
	ldr	r2, [r2, #24]
	mov	r1, #128
	lsl	r1, r1, #5
	orr	r2, r1
	str	r2, [r3, #24]
	b	.L25
.L24:
	.loc 1 120 0
	mov	r3, #144
	lsl	r3, r3, #23
	mov	r2, #144
	lsl	r2, r2, #23
	ldr	r2, [r2, #24]
	mov	r1, #128
	lsl	r1, r1, #21
	orr	r2, r1
	str	r2, [r3, #24]
.L25:
	.loc 1 122 0
	add	r3, r7, #7
	ldrb	r3, [r3]
	mov	r2, #2
	and	r3, r2
	beq	.L26
	.loc 1 123 0
	ldr	r3, .L30+4
	ldr	r2, .L30+4
	ldr	r2, [r2, #24]
	mov	r1, #128
	lsl	r1, r1, #2
	orr	r2, r1
	str	r2, [r3, #24]
	b	.L27
.L26:
	.loc 1 125 0
	ldr	r3, .L30+4
	ldr	r2, .L30+4
	ldr	r2, [r2, #24]
	mov	r1, #128
	lsl	r1, r1, #18
	orr	r2, r1
	str	r2, [r3, #24]
.L27:
	.loc 1 127 0
	add	r3, r7, #7
	ldrb	r3, [r3]
	mov	r2, #1
	and	r3, r2
	beq	.L28
	.loc 1 128 0
	ldr	r3, .L30+4
	ldr	r2, .L30+4
	ldr	r2, [r2, #24]
	mov	r1, #128
	lsl	r1, r1, #1
	orr	r2, r1
	str	r2, [r3, #24]
	b	.L29
.L28:
	.loc 1 130 0
	ldr	r3, .L30+4
	ldr	r2, .L30+4
	ldr	r2, [r2, #24]
	mov	r1, #128
	lsl	r1, r1, #17
	orr	r2, r1
	str	r2, [r3, #24]
.L29:
	.loc 1 132 0
	bl	pulse_strobe
	.loc 1 133 0
	mov	sp, r7
	add	sp, sp, #8
	@ sp needed
	pop	{r7, pc}
.L31:
	.align	2
.L30:
	.word	1207961600
	.word	1207960576
	.cfi_endproc
.LFE37:
	.size	lcd_put, .-lcd_put
	.align	2
	.code	16
	.thumb_func
	.type	delay, %function
delay:
.LFB38:
	.loc 1 138 0
	.cfi_startproc
	push	{r7, lr}
	.cfi_def_cfa_offset 8
	.cfi_offset 7, -8
	.cfi_offset 14, -4
	sub	sp, sp, #16
	.cfi_def_cfa_offset 24
	add	r7, sp, #0
	.cfi_def_cfa_register 7
	str	r0, [r7, #4]
	.loc 1 140 0
	mov	r3, #0
	str	r3, [r7, #12]
	.loc 1 141 0
	ldr	r2, [r7, #4]
	mov	r3, r2
	lsl	r3, r3, #1
	add	r3, r3, r2
	str	r3, [r7, #4]
	.loc 1 142 0
	b	.L33
.L34:
	.loc 1 143 0 discriminator 2
@ 143 "lcd_stm32f0.c" 1
	nop
@ 0 "" 2
	.loc 1 144 0 discriminator 2
@ 144 "lcd_stm32f0.c" 1
	nop
@ 0 "" 2
	.loc 1 142 0 discriminator 2
	.code	16
	ldr	r3, [r7, #12]
	add	r3, r3, #1
	str	r3, [r7, #12]
.L33:
	.loc 1 142 0 is_stmt 0 discriminator 1
	ldr	r2, [r7, #12]
	ldr	r3, [r7, #4]
	cmp	r2, r3
	bcc	.L34
	.loc 1 146 0 is_stmt 1
	mov	sp, r7
	add	sp, sp, #16
	@ sp needed
	pop	{r7, pc}
	.cfi_endproc
.LFE38:
	.size	delay, .-delay
	.align	2
	.code	16
	.thumb_func
	.type	pulse_strobe, %function
pulse_strobe:
.LFB39:
	.loc 1 148 0
	.cfi_startproc
	push	{r7, lr}
	.cfi_def_cfa_offset 8
	.cfi_offset 7, -8
	.cfi_offset 14, -4
	add	r7, sp, #0
	.cfi_def_cfa_register 7
	.loc 1 150 0
	mov	r0, #20
	bl	delay
	.loc 1 151 0
	ldr	r3, .L36
	ldr	r2, .L36
	ldr	r2, [r2, #24]
	mov	r1, #128
	lsl	r1, r1, #24
	orr	r2, r1
	str	r2, [r3, #24]
	.loc 1 152 0
	mov	r0, #20
	bl	delay
	.loc 1 153 0
	ldr	r3, .L36
	ldr	r2, .L36
	ldr	r2, [r2, #24]
	mov	r1, #128
	lsl	r1, r1, #8
	orr	r2, r1
	str	r2, [r3, #24]
	.loc 1 154 0
	mov	r0, #20
	bl	delay
	.loc 1 155 0
	mov	sp, r7
	@ sp needed
	pop	{r7, pc}
.L37:
	.align	2
.L36:
	.word	1207961600
	.cfi_endproc
.LFE39:
	.size	pulse_strobe, .-pulse_strobe
.Letext0:
	.file 2 "c:\\program files (x86)\\gnu tools arm embedded\\4.9 2015q2\\arm-none-eabi\\include\\machine\\_default_types.h"
	.file 3 "c:\\program files (x86)\\gnu tools arm embedded\\4.9 2015q2\\arm-none-eabi\\include\\sys\\_stdint.h"
	.file 4 "./Libraries/stm32f0xx.h"
	.file 5 "./Libraries/lcd_stm32f0.h"