	.cpu cortex-m0
	.fpu softvfp
	.eabi_attribute 20, 1
	.eabi_attribute 21, 1
	.eabi_attribute 23, 3
	.eabi_attribute 24, 1
	.eabi_attribute 25, 1
	.eabi_attribute 26, 1
	.eabi_attribute 30, 6
	.eabi_attribute 34, 0
	.eabi_attribute 18, 4
	.code	16
	.file	"woodboxstm32f051C6.c"
	.text
.Ltext0:
	.cfi_sections	.debug_frame
	.align	2
	.code	16
	.thumb_func
	.type	NVIC_EnableIRQ, %function
NVIC_EnableIRQ:
.LFB24:
	.file 1 "./Libraries/core_cm0.h"
	.loc 1 516 0
	.cfi_startproc
	push	{r7, lr}
	.cfi_def_cfa_offset 8
	.cfi_offset 7, -8
	.cfi_offset 14, -4
	sub	sp, sp, #8
	.cfi_def_cfa_offset 16
	add	r7, sp, #0
	.cfi_def_cfa_register 7
	mov	r2, r0
	add	r3, r7, #7
	strb	r2, [r3]
	.loc 1 517 0
	ldr	r3, .L2
	add	r2, r7, #7
	ldrb	r2, [r2]
	mov	r1, r2
	mov	r2, #31
	and	r2, r1
	mov	r1, #1
	lsl	r1, r1, r2
	mov	r2, r1
	str	r2, [r3]
	.loc 1 518 0
	mov	sp, r7
	add	sp, sp, #8
	@ sp needed
	pop	{r7, pc}
.L3:
	.align	2
.L2:
	.word	-536813312
	.cfi_endproc
.LFE24:
	.size	NVIC_EnableIRQ, .-NVIC_EnableIRQ
	.align	2
	.global	programError
	.code	16
	.thumb_func
	.type	programError, %function
programError:
.LFB33:
	.file 2 "woodboxstm32f051C6.c"
	.loc 2 17 0
	.cfi_startproc
	push	{r7, lr}
	.cfi_def_cfa_offset 8
	.cfi_offset 7, -8
	.cfi_offset 14, -4
	add	r7, sp, #0
	.cfi_def_cfa_register 7
	.loc 2 18 0
	ldr	r3, .L6
	mov	r2, #231
	strh	r2, [r3, #20]
.L5:
	.loc 2 20 0 discriminator 1
	b	.L5
.L7:
	.align	2
.L6:
	.word	1207960576
	.cfi_endproc
.LFE33:
	.size	programError, .-programError
	.align	2
	.global	delayms
	.code	16
	.thumb_func
	.type	delayms, %function
delayms:
.LFB34:
	.loc 2 27 0
	.cfi_startproc
	push	{r7, lr}
	.cfi_def_cfa_offset 8
	.cfi_offset 7, -8
	.cfi_offset 14, -4
	sub	sp, sp, #16
	.cfi_def_cfa_offset 24
	add	r7, sp, #0
	.cfi_def_cfa_register 7
	str	r0, [r7, #4]
	.loc 2 29 0
	ldr	r3, [r7, #4]
	ldr	r2, .L11
	mul	r3, r2
	str	r3, [r7, #4]
	.loc 2 30 0
	mov	r3, #0
	str	r3, [r7, #12]
	b	.L9
.L10:
	.loc 2 31 0
	ldr	r3, [r7, #12]
	add	r3, r3, #1
	str	r3, [r7, #12]
.L9:
	.loc 2 30 0 discriminator 1
	ldr	r2, [r7, #12]
	ldr	r3, [r7, #4]
	cmp	r2, r3
	bls	.L10
	.loc 2 33 0
	mov	sp, r7
	add	sp, sp, #16
	@ sp needed
	pop	{r7, pc}
.L12:
	.align	2
.L11:
	.word	615
	.cfi_endproc
.LFE34:
	.size	delayms, .-delayms
	.align	2
	.global	delaypointms
	.code	16
	.thumb_func
	.type	delaypointms, %function
delaypointms:
.LFB35:
	.loc 2 35 0
	.cfi_startproc
	push	{r7, lr}
	.cfi_def_cfa_offset 8
	.cfi_offset 7, -8
	.cfi_offset 14, -4
	sub	sp, sp, #16
	.cfi_def_cfa_offset 24
	add	r7, sp, #0
	.cfi_def_cfa_register 7
	str	r0, [r7, #4]
	.loc 2 37 0
	ldr	r2, [r7, #4]
	mov	r3, r2
	lsl	r3, r3, #5
	sub	r3, r3, r2
	lsl	r3, r3, #1
	str	r3, [r7, #4]
	.loc 2 38 0
	mov	r3, #0
	str	r3, [r7, #12]
	b	.L14
.L15:
	.loc 2 39 0
	ldr	r3, [r7, #12]
	add	r3, r3, #1
	str	r3, [r7, #12]
.L14:
	.loc 2 38 0 discriminator 1
	ldr	r2, [r7, #12]
	ldr	r3, [r7, #4]
	cmp	r2, r3
	bls	.L15
	.loc 2 41 0
	mov	sp, r7
	add	sp, sp, #16
	@ sp needed
	pop	{r7, pc}
	.cfi_endproc
.LFE35:
	.size	delaypointms, .-delaypointms
	.align	2
	.global	initLEDs
	.code	16
	.thumb_func
	.type	initLEDs, %function
initLEDs:
.LFB36:
	.loc 2 49 0
	.cfi_startproc
	push	{r7, lr}
	.cfi_def_cfa_offset 8
	.cfi_offset 7, -8
	.cfi_offset 14, -4
	add	r7, sp, #0
	.cfi_def_cfa_register 7
	.loc 2 50 0
	ldr	r3, .L17
	ldr	r2, .L17
	ldr	r2, [r2, #20]
	mov	r1, #128
	lsl	r1, r1, #11
	orr	r2, r1
	str	r2, [r3, #20]
	.loc 2 51 0
	ldr	r3, .L17+4
	ldr	r2, .L17+4
	ldr	r2, [r2]
	mov	r1, #1
	orr	r2, r1
	str	r2, [r3]
	.loc 2 52 0
	ldr	r3, .L17+4
	ldr	r2, .L17+4
	ldr	r2, [r2]
	mov	r1, #4
	orr	r2, r1
	str	r2, [r3]
	.loc 2 53 0
	ldr	r3, .L17+4
	ldr	r2, .L17+4
	ldr	r2, [r2]
	mov	r1, #16
	orr	r2, r1
	str	r2, [r3]
	.loc 2 54 0
	ldr	r3, .L17+4
	ldr	r2, .L17+4
	ldr	r2, [r2]
	mov	r1, #64
	orr	r2, r1
	str	r2, [r3]
	.loc 2 55 0
	ldr	r3, .L17+4
	ldr	r2, .L17+4
	ldr	r2, [r2]
	mov	r1, #128
	lsl	r1, r1, #1
	orr	r2, r1
	str	r2, [r3]
	.loc 2 56 0
	ldr	r3, .L17+4
	ldr	r2, .L17+4
	ldr	r2, [r2]
	mov	r1, #128
	lsl	r1, r1, #3
	orr	r2, r1
	str	r2, [r3]
	.loc 2 57 0
	ldr	r3, .L17+4
	ldr	r2, .L17+4
	ldr	r2, [r2]
	mov	r1, #128
	lsl	r1, r1, #5
	orr	r2, r1
	str	r2, [r3]
	.loc 2 58 0
	ldr	r3, .L17+4
	ldr	r2, .L17+4
	ldr	r2, [r2]
	mov	r1, #128
	lsl	r1, r1, #7
	orr	r2, r1
	str	r2, [r3]
	.loc 2 60 0
	mov	sp, r7
	@ sp needed
	pop	{r7, pc}
.L18:
	.align	2
.L17:
	.word	1073876992
	.word	1207960576
	.cfi_endproc
.LFE36:
	.size	initLEDs, .-initLEDs
	.align	2
	.global	incrementLEDs
	.code	16
	.thumb_func
	.type	incrementLEDs, %function
incrementLEDs:
.LFB37:
	.loc 2 62 0
	.cfi_startproc
	push	{r7, lr}
	.cfi_def_cfa_offset 8
	.cfi_offset 7, -8
	.cfi_offset 14, -4
	sub	sp, sp, #16
	.cfi_def_cfa_offset 24
	add	r7, sp, #0
	.cfi_def_cfa_register 7
	mov	r2, r0
	add	r3, r7, #7
	strb	r2, [r3]
	.loc 2 63 0
	ldr	r3, .L20
	ldrh	r3, [r3, #20]
	uxth	r2, r3
	mov	r3, #15
	add	r3, r7, r3
	strb	r2, [r3]
	.loc 2 64 0
	ldr	r2, .L20
	add	r3, r7, #7
	ldrb	r3, [r3]
	sxtb	r3, r3
	uxth	r1, r3
	mov	r3, #15
	add	r3, r7, r3
	ldrb	r3, [r3]
	sxtb	r3, r3
	uxth	r3, r3
	add	r3, r1, r3
	uxth	r3, r3
	uxth	r3, r3
	strh	r3, [r2, #20]
	.loc 2 66 0
	mov	sp, r7
	add	sp, sp, #16
	@ sp needed
	pop	{r7, pc}
.L21:
	.align	2
.L20:
	.word	1207960576
	.cfi_endproc
.LFE37:
	.size	incrementLEDs, .-incrementLEDs
	.align	2
	.global	initPB
	.code	16
	.thumb_func
	.type	initPB, %function
initPB:
.LFB38:
	.loc 2 70 0
	.cfi_startproc
	push	{r7, lr}
	.cfi_def_cfa_offset 8
	.cfi_offset 7, -8
	.cfi_offset 14, -4
	add	r7, sp, #0
	.cfi_def_cfa_register 7
	.loc 2 71 0
	ldr	r3, .L23
	ldr	r2, .L23
	ldr	r2, [r2, #20]
	mov	r1, #128
	lsl	r1, r1, #10
	orr	r2, r1
	str	r2, [r3, #20]
	.loc 2 72 0
	mov	r3, #144
	lsl	r3, r3, #23
	mov	r2, #144
	lsl	r2, r2, #23
	ldr	r2, [r2, #12]
	mov	r1, #1
	orr	r2, r1
	str	r2, [r3, #12]
	.loc 2 73 0
	mov	r3, #144
	lsl	r3, r3, #23
	mov	r2, #144
	lsl	r2, r2, #23
	ldr	r2, [r2, #12]
	mov	r1, #4
	orr	r2, r1
	str	r2, [r3, #12]
	.loc 2 74 0
	mov	r3, #144
	lsl	r3, r3, #23
	mov	r2, #144
	lsl	r2, r2, #23
	ldr	r2, [r2, #12]
	mov	r1, #16
	orr	r2, r1
	str	r2, [r3, #12]
	.loc 2 75 0
	mov	r3, #144
	lsl	r3, r3, #23
	mov	r2, #144
	lsl	r2, r2, #23
	ldr	r2, [r2, #12]
	mov	r1, #64
	orr	r2, r1
	str	r2, [r3, #12]
	.loc 2 76 0
	mov	sp, r7
	@ sp needed
	pop	{r7, pc}
.L24:
	.align	2
.L23:
	.word	1073876992
	.cfi_endproc
.LFE38:
	.size	initPB, .-initPB
	.align	2
	.global	getPB
	.code	16
	.thumb_func
	.type	getPB, %function
getPB:
.LFB39:
	.loc 2 78 0
	.cfi_startproc
	push	{r7, lr}
	.cfi_def_cfa_offset 8
	.cfi_offset 7, -8
	.cfi_offset 14, -4
	sub	sp, sp, #16
	.cfi_def_cfa_offset 24
	add	r7, sp, #0
	.cfi_def_cfa_register 7
	mov	r2, r0
	add	r3, r7, #7
	strb	r2, [r3]
	.loc 2 79 0
	mov	r3, #15
	add	r3, r7, r3
	mov	r2, #0
	strb	r2, [r3]
	.loc 2 80 0
	add	r3, r7, #7
	ldrb	r3, [r3]
	sxtb	r3, r3
	cmp	r3, #0
	bne	.L26
	.loc 2 81 0
	mov	r3, #144
	lsl	r3, r3, #23
	ldrh	r3, [r3, #16]
	uxth	r3, r3
	mov	r2, r3
	mov	r3, #1
	and	r3, r2
	neg	r2, r3
	adc	r3, r3, r2
	uxtb	r2, r3
	mov	r3, #15
	add	r3, r7, r3
	strb	r2, [r3]
	b	.L27
.L26:
	.loc 2 83 0
	add	r3, r7, #7
	ldrb	r3, [r3]
	sxtb	r3, r3
	cmp	r3, #1
	bne	.L28
	.loc 2 84 0
	mov	r3, #144
	lsl	r3, r3, #23
	ldrh	r3, [r3, #16]
	uxth	r3, r3
	uxtb	r3, r3
	mvn	r3, r3
	uxtb	r2, r3
	mov	r3, #15
	add	r3, r7, r3
	add	r1, r2, #0
	mov	r2, #2
	and	r2, r1
	strb	r2, [r3]
	b	.L27
.L28:
	.loc 2 86 0
	add	r3, r7, #7
	ldrb	r3, [r3]
	sxtb	r3, r3
	cmp	r3, #2
	bne	.L29
	.loc 2 87 0
	mov	r3, #144
	lsl	r3, r3, #23
	ldrh	r3, [r3, #16]
	uxth	r3, r3
	uxtb	r3, r3
	mvn	r3, r3
	uxtb	r2, r3
	mov	r3, #15
	add	r3, r7, r3
	add	r1, r2, #0
	mov	r2, #4
	and	r2, r1
	strb	r2, [r3]
	b	.L27
.L29:
	.loc 2 89 0
	add	r3, r7, #7
	ldrb	r3, [r3]
	sxtb	r3, r3
	cmp	r3, #3
	bne	.L27
	.loc 2 90 0
	mov	r3, #144
	lsl	r3, r3, #23
	ldrh	r3, [r3, #16]
	uxth	r3, r3
	uxtb	r3, r3
	mvn	r3, r3
	uxtb	r2, r3
	mov	r3, #15
	add	r3, r7, r3
	add	r1, r2, #0
	mov	r2, #8
	and	r2, r1
	strb	r2, [r3]
.L27:
	.loc 2 93 0
	mov	r3, #15
	add	r3, r7, r3
	ldrb	r3, [r3]
	sxtb	r3, r3
	.loc 2 94 0
	mov	r0, r3
	mov	sp, r7
	add	sp, sp, #16
	@ sp needed
	pop	{r7, pc}
	.cfi_endproc
.LFE39:
	.size	getPB, .-getPB
	.align	2
	.global	enableInterruptPB
	.code	16
	.thumb_func
	.type	enableInterruptPB, %function
enableInterruptPB:
.LFB40:
	.loc 2 96 0
	.cfi_startproc
	push	{r7, lr}
	.cfi_def_cfa_offset 8
	.cfi_offset 7, -8
	.cfi_offset 14, -4
	sub	sp, sp, #8
	.cfi_def_cfa_offset 16
	add	r7, sp, #0
	.cfi_def_cfa_register 7
	mov	r2, r0
	add	r3, r7, #7
	strb	r2, [r3]
	add	r3, r7, #6
	add	r2, r1, #0
	strb	r2, [r3]
	.loc 2 97 0
	ldr	r3, .L51
	ldr	r2, .L51
	ldr	r2, [r2, #24]
	mov	r1, #1
	orr	r2, r1
	str	r2, [r3, #24]
	.loc 2 99 0
	add	r3, r7, #7
	ldrb	r3, [r3]
	sxtb	r3, r3
	cmp	r3, #0
	bne	.L32
	.loc 2 100 0
	ldr	r3, .L51+4
	ldr	r2, .L51+4
	ldr	r2, [r2, #8]
	str	r2, [r3, #8]
	.loc 2 101 0
	ldr	r3, .L51+8
	ldr	r2, .L51+8
	ldr	r2, [r2]
	mov	r1, #1
	orr	r2, r1
	str	r2, [r3]
	.loc 2 102 0
	add	r3, r7, #6
	ldrb	r3, [r3]
	sxtb	r3, r3
	cmp	r3, #0
	bne	.L33
	.loc 2 103 0
	ldr	r3, .L51+8
	ldr	r2, .L51+8
	ldr	r2, [r2, #8]
	mov	r1, #1
	orr	r2, r1
	str	r2, [r3, #8]
	b	.L36
.L33:
	.loc 2 104 0
	add	r3, r7, #6
	ldrb	r3, [r3]
	sxtb	r3, r3
	cmp	r3, #1
	bne	.L35
	.loc 2 105 0
	ldr	r3, .L51+8
	ldr	r2, .L51+8
	ldr	r2, [r2, #12]
	mov	r1, #1
	orr	r2, r1
	str	r2, [r3, #12]
	b	.L36
.L35:
	.loc 2 106 0
	add	r3, r7, #6
	ldrb	r3, [r3]
	sxtb	r3, r3
	cmp	r3, #2
	beq	.LCB548
	b	.L36	@long jump
.LCB548:
	.loc 2 107 0
	ldr	r3, .L51+8
	ldr	r2, .L51+8
	ldr	r2, [r2, #8]
	mov	r1, #1
	orr	r2, r1
	str	r2, [r3, #8]
	.loc 2 108 0
	ldr	r3, .L51+8
	ldr	r2, .L51+8
	ldr	r2, [r2, #12]
	mov	r1, #1
	orr	r2, r1
	str	r2, [r3, #12]
	b	.L36
.L32:
	.loc 2 111 0
	add	r3, r7, #7
	ldrb	r3, [r3]
	sxtb	r3, r3
	cmp	r3, #1
	bne	.L37
	.loc 2 112 0
	ldr	r3, .L51+4
	ldr	r2, .L51+4
	ldr	r2, [r2, #8]
	str	r2, [r3, #8]
	.loc 2 113 0
	ldr	r3, .L51+8
	ldr	r2, .L51+8
	ldr	r2, [r2]
	mov	r1, #2
	orr	r2, r1
	str	r2, [r3]
	.loc 2 114 0
	add	r3, r7, #6
	ldrb	r3, [r3]
	sxtb	r3, r3
	cmp	r3, #0
	bne	.L38
	.loc 2 115 0
	ldr	r3, .L51+8
	ldr	r2, .L51+8
	ldr	r2, [r2, #8]
	mov	r1, #2
	orr	r2, r1
	str	r2, [r3, #8]
	b	.L36
.L38:
	.loc 2 116 0
	add	r3, r7, #6
	ldrb	r3, [r3]
	sxtb	r3, r3
	cmp	r3, #1
	bne	.L40
	.loc 2 117 0
	ldr	r3, .L51+8
	ldr	r2, .L51+8
	ldr	r2, [r2, #12]
	mov	r1, #2
	orr	r2, r1
	str	r2, [r3, #12]
	b	.L36
.L40:
	.loc 2 118 0
	add	r3, r7, #6
	ldrb	r3, [r3]
	sxtb	r3, r3
	cmp	r3, #2
	beq	.LCB614
	b	.L36	@long jump
.LCB614:
	.loc 2 119 0
	ldr	r3, .L51+8
	ldr	r2, .L51+8
	ldr	r2, [r2, #8]
	mov	r1, #2
	orr	r2, r1
	str	r2, [r3, #8]
	.loc 2 120 0
	ldr	r3, .L51+8
	ldr	r2, .L51+8
	ldr	r2, [r2, #12]
	mov	r1, #2
	orr	r2, r1
	str	r2, [r3, #12]
	b	.L36
.L37:
	.loc 2 123 0
	add	r3, r7, #7
	ldrb	r3, [r3]
	sxtb	r3, r3
	cmp	r3, #2
	bne	.L41
	.loc 2 124 0
	ldr	r3, .L51+4
	ldr	r2, .L51+4
	ldr	r2, [r2, #8]
	str	r2, [r3, #8]
	.loc 2 125 0
	ldr	r3, .L51+8
	ldr	r2, .L51+8
	ldr	r2, [r2]
	mov	r1, #4
	orr	r2, r1
	str	r2, [r3]
	.loc 2 126 0
	add	r3, r7, #6
	ldrb	r3, [r3]
	sxtb	r3, r3
	cmp	r3, #0
	bne	.L42
	.loc 2 127 0
	ldr	r3, .L51+8
	ldr	r2, .L51+8
	ldr	r2, [r2, #8]
	mov	r1, #4
	orr	r2, r1
	str	r2, [r3, #8]
	b	.L36
.L42:
	.loc 2 128 0
	add	r3, r7, #6
	ldrb	r3, [r3]
	sxtb	r3, r3
	cmp	r3, #1
	bne	.L44
	.loc 2 129 0
	ldr	r3, .L51+8
	ldr	r2, .L51+8
	ldr	r2, [r2, #12]
	mov	r1, #4
	orr	r2, r1
	str	r2, [r3, #12]
	b	.L36
.L44:
	.loc 2 130 0
	add	r3, r7, #6
	ldrb	r3, [r3]
	sxtb	r3, r3
	cmp	r3, #2
	bne	.L36
	.loc 2 131 0
	ldr	r3, .L51+8
	ldr	r2, .L51+8
	ldr	r2, [r2, #8]
	mov	r1, #4
	orr	r2, r1
	str	r2, [r3, #8]
	.loc 2 132 0
	ldr	r3, .L51+8
	ldr	r2, .L51+8
	ldr	r2, [r2, #12]
	mov	r1, #4
	orr	r2, r1
	str	r2, [r3, #12]
	b	.L36
.L41:
	.loc 2 135 0
	add	r3, r7, #7
	ldrb	r3, [r3]
	sxtb	r3, r3
	cmp	r3, #3
	bne	.L36
	.loc 2 136 0
	ldr	r3, .L51+4
	ldr	r2, .L51+4
	ldr	r2, [r2, #8]
	str	r2, [r3, #8]
	.loc 2 137 0
	ldr	r3, .L51+8
	ldr	r2, .L51+8
	ldr	r2, [r2]
	mov	r1, #8
	orr	r2, r1
	str	r2, [r3]
	.loc 2 138 0
	add	r3, r7, #6
	ldrb	r3, [r3]
	sxtb	r3, r3
	cmp	r3, #0
	bne	.L45
	.loc 2 139 0
	ldr	r3, .L51+8
	ldr	r2, .L51+8
	ldr	r2, [r2, #8]
	mov	r1, #8
	orr	r2, r1
	str	r2, [r3, #8]
	b	.L36
.L45:
	.loc 2 140 0
	add	r3, r7, #6
	ldrb	r3, [r3]
	sxtb	r3, r3
	cmp	r3, #1
	bne	.L46
	.loc 2 141 0
	ldr	r3, .L51+8
	ldr	r2, .L51+8
	ldr	r2, [r2, #12]
	mov	r1, #8
	orr	r2, r1
	str	r2, [r3, #12]
	b	.L36
.L46:
	.loc 2 142 0
	add	r3, r7, #6
	ldrb	r3, [r3]
	sxtb	r3, r3
	cmp	r3, #2
	bne	.L36
	.loc 2 143 0
	ldr	r3, .L51+8
	ldr	r2, .L51+8
	ldr	r2, [r2, #8]
	mov	r1, #8
	orr	r2, r1
	str	r2, [r3, #8]
	.loc 2 144 0
	ldr	r3, .L51+8
	ldr	r2, .L51+8
	ldr	r2, [r2, #12]
	mov	r1, #8
	orr	r2, r1
	str	r2, [r3, #12]
.L36:
	.loc 2 148 0
	add	r3, r7, #7
	ldrb	r3, [r3]
	sxtb	r3, r3
	cmp	r3, #0
	beq	.L47
	.loc 2 148 0 is_stmt 0 discriminator 1
	add	r3, r7, #7
	ldrb	r3, [r3]
	sxtb	r3, r3
	cmp	r3, #1
	bne	.L48
.L47:
	.loc 2 149 0 is_stmt 1
	mov	r0, #5
	bl	NVIC_EnableIRQ
	b	.L31
.L48:
	.loc 2 150 0
	add	r3, r7, #7
	ldrb	r3, [r3]
	sxtb	r3, r3
	cmp	r3, #2
	beq	.L50
	.loc 2 150 0 is_stmt 0 discriminator 1
	add	r3, r7, #7
	ldrb	r3, [r3]
	sxtb	r3, r3
	cmp	r3, #3
	bne	.L31
.L50:
	.loc 2 151 0 is_stmt 1
	mov	r0, #6
	bl	NVIC_EnableIRQ
.L31:
	.loc 2 153 0
	mov	sp, r7
	add	sp, sp, #8
	@ sp needed
	pop	{r7, pc}
.L52:
	.align	2
.L51:
	.word	1073876992
	.word	1073807360
	.word	1073808384
	.cfi_endproc
.LFE40:
	.size	enableInterruptPB, .-enableInterruptPB
	.align	2
	.global	initADCPot
	.code	16
	.thumb_func
	.type	initADCPot, %function
initADCPot:
.LFB41:
	.loc 2 159 0
	.cfi_startproc
	push	{r7, lr}
	.cfi_def_cfa_offset 8
	.cfi_offset 7, -8
	.cfi_offset 14, -4
	sub	sp, sp, #8
	.cfi_def_cfa_offset 16
	add	r7, sp, #0
	.cfi_def_cfa_register 7
	mov	r2, r0
	add	r3, r7, #7
	strb	r2, [r3]
	add	r3, r7, #6
	add	r2, r1, #0
	strb	r2, [r3]
	.loc 2 160 0
	ldr	r3, .L61
	ldr	r2, .L61
	ldr	r2, [r2, #20]
	mov	r1, #128
	lsl	r1, r1, #10
	orr	r2, r1
	str	r2, [r3, #20]
	.loc 2 161 0
	ldr	r3, .L61
	ldr	r2, .L61
	ldr	r2, [r2, #24]
	mov	r1, #128
	lsl	r1, r1, #2
	orr	r2, r1
	str	r2, [r3, #24]
	.loc 2 164 0
	add	r3, r7, #7
	ldrb	r3, [r3]
	sxtb	r3, r3
	cmp	r3, #2
	bne	.L54
	.loc 2 165 0
	mov	r3, #144
	lsl	r3, r3, #23
	mov	r2, #144
	lsl	r2, r2, #23
	ldr	r2, [r2]
	mov	r1, #240
	lsl	r1, r1, #6
	orr	r2, r1
	str	r2, [r3]
	b	.L55
.L54:
	.loc 2 167 0
	add	r3, r7, #7
	ldrb	r3, [r3]
	sxtb	r3, r3
	cmp	r3, #0
	bne	.L56
	.loc 2 168 0
	mov	r3, #144
	lsl	r3, r3, #23
	mov	r2, #144
	lsl	r2, r2, #23
	ldr	r2, [r2]
	mov	r1, #192
	lsl	r1, r1, #4
	orr	r2, r1
	str	r2, [r3]
	b	.L55
.L56:
	.loc 2 170 0
	add	r3, r7, #7
	ldrb	r3, [r3]
	sxtb	r3, r3
	cmp	r3, #1
	bne	.L55
	.loc 2 171 0
	mov	r3, #144
	lsl	r3, r3, #23
	mov	r2, #144
	lsl	r2, r2, #23
	ldr	r2, [r2]
	mov	r1, #192
	lsl	r1, r1, #6
	orr	r2, r1
	str	r2, [r3]
.L55:
	.loc 2 176 0
	add	r3, r7, #6
	ldrb	r3, [r3]
	cmp	r3, #12
	beq	.L57
	.loc 2 178 0
	add	r3, r7, #6
	ldrb	r3, [r3]
	cmp	r3, #10
	bne	.L58
	.loc 2 179 0
	ldr	r3, .L61+4
	ldr	r2, .L61+4
	ldr	r2, [r2, #12]
	mov	r1, #8
	orr	r2, r1
	str	r2, [r3, #12]
	b	.L57
.L58:
	.loc 2 181 0
	add	r3, r7, #6
	ldrb	r3, [r3]
	cmp	r3, #8
	bne	.L59
	.loc 2 182 0
	ldr	r3, .L61+4
	ldr	r2, .L61+4
	ldr	r2, [r2, #12]
	mov	r1, #16
	orr	r2, r1
	str	r2, [r3, #12]
	b	.L57
.L59:
	.loc 2 184 0
	add	r3, r7, #6
	ldrb	r3, [r3]
	cmp	r3, #6
	bne	.L57
	.loc 2 185 0
	ldr	r3, .L61+4
	ldr	r2, .L61+4
	ldr	r2, [r2, #12]
	mov	r1, #24
	orr	r2, r1
	str	r2, [r3, #12]
.L57:
	.loc 2 189 0
	ldr	r3, .L61+4
	ldr	r2, .L61+4
	ldr	r2, [r2, #8]
	mov	r1, #1
	orr	r2, r1
	str	r2, [r3, #8]
	.loc 2 190 0
	mov	r8, r8
.L60:
	.loc 2 190 0 is_stmt 0 discriminator 3
	ldr	r3, .L61+4
	ldr	r3, [r3]
	cmp	r3, #0
	beq	.L60
	.loc 2 192 0 is_stmt 1
	mov	sp, r7
	add	sp, sp, #8
	@ sp needed
	pop	{r7, pc}
.L62:
	.align	2
.L61:
	.word	1073876992
	.word	1073816576
	.cfi_endproc
.LFE41:
	.size	initADCPot, .-initADCPot
	.align	2
	.global	getPot
	.code	16
	.thumb_func
	.type	getPot, %function
getPot:
.LFB42:
	.loc 2 195 0
	.cfi_startproc
	push	{r7, lr}
	.cfi_def_cfa_offset 8
	.cfi_offset 7, -8
	.cfi_offset 14, -4
	sub	sp, sp, #16
	.cfi_def_cfa_offset 24
	add	r7, sp, #0
	.cfi_def_cfa_register 7
	mov	r2, r0
	add	r3, r7, #7
	strb	r2, [r3]
	.loc 2 196 0
	mov	r3, #14
	add	r3, r7, r3
	mov	r2, #0
	strh	r2, [r3]
	.loc 2 197 0
	ldr	r3, .L69
	ldr	r2, .L69
	ldr	r2, [r2, #8]
	mov	r1, #1
	bic	r2, r1
	str	r2, [r3, #8]
	.loc 2 198 0
	add	r3, r7, #7
	ldrb	r3, [r3]
	sxtb	r3, r3
	cmp	r3, #0
	bne	.L64
	.loc 2 199 0
	ldr	r3, .L69
	ldr	r2, .L69
	ldr	r2, [r2, #40]
	mov	r1, #64
	bic	r2, r1
	str	r2, [r3, #40]
	.loc 2 200 0
	ldr	r3, .L69
	ldr	r2, .L69
	ldr	r2, [r2, #40]
	mov	r1, #32
	orr	r2, r1
	str	r2, [r3, #40]
	b	.L65
.L64:
	.loc 2 202 0
	add	r3, r7, #7
	ldrb	r3, [r3]
	sxtb	r3, r3
	cmp	r3, #1
	bne	.L65
	.loc 2 203 0
	ldr	r3, .L69
	ldr	r2, .L69
	ldr	r2, [r2, #40]
	mov	r1, #32
	bic	r2, r1
	str	r2, [r3, #40]
	.loc 2 204 0
	ldr	r3, .L69
	ldr	r2, .L69
	ldr	r2, [r2, #40]
	mov	r1, #64
	orr	r2, r1
	str	r2, [r3, #40]
.L65:
	.loc 2 207 0
	ldr	r3, .L69
	ldr	r2, .L69
	ldr	r2, [r2, #8]
	mov	r1, #1
	orr	r2, r1
	str	r2, [r3, #8]
	.loc 2 208 0
	mov	r8, r8
.L66:
	.loc 2 208 0 is_stmt 0 discriminator 3
	ldr	r3, .L69
	ldr	r3, [r3]
	cmp	r3, #0
	beq	.L66
	.loc 2 209 0 is_stmt 1
	ldr	r3, .L69
	ldr	r2, .L69
	ldr	r2, [r2, #8]
	mov	r1, #4
	orr	r2, r1
	str	r2, [r3, #8]
	.loc 2 210 0
	mov	r8, r8
.L67:
	.loc 2 210 0 is_stmt 0 discriminator 2
	ldr	r3, .L69
	ldr	r3, [r3, #4]
	cmp	r3, #0
	bne	.L67
	.loc 2 211 0 is_stmt 1
	ldr	r3, .L69
	ldr	r2, [r3, #64]
	mov	r3, #14
	add	r3, r7, r3
	strh	r2, [r3]
	.loc 2 213 0
	mov	r3, #14
	add	r3, r7, r3
	ldrh	r3, [r3]
	.loc 2 214 0
	mov	r0, r3
	mov	sp, r7
	add	sp, sp, #16
	@ sp needed
	pop	{r7, pc}
.L70:
	.align	2
.L69:
	.word	1073816576
	.cfi_endproc
.LFE42:
	.size	getPot, .-getPot
	.align	2
	.global	initTIM6
	.code	16
	.thumb_func
	.type	initTIM6, %function
initTIM6:
.LFB43:
	.loc 2 219 0
	.cfi_startproc
	push	{r4, r5, r7, lr}
	.cfi_def_cfa_offset 16
	.cfi_offset 4, -16
	.cfi_offset 5, -12
	.cfi_offset 7, -8
	.cfi_offset 14, -4
	sub	sp, sp, #8
	.cfi_def_cfa_offset 24
	add	r7, sp, #0
	.cfi_def_cfa_register 7
	mov	r5, r0
	mov	r4, r1
	mov	r0, r2
	mov	r1, r3
	add	r3, r7, #6
	add	r2, r5, #0
	strh	r2, [r3]
	add	r3, r7, #4
	add	r2, r4, #0
	strh	r2, [r3]
	add	r3, r7, #3
	add	r2, r0, #0
	strb	r2, [r3]
	add	r3, r7, #2
	add	r2, r1, #0
	strb	r2, [r3]
	.loc 2 220 0
	ldr	r3, .L74
	ldr	r2, .L74
	ldr	r2, [r2, #28]
	mov	r1, #16
	orr	r2, r1
	str	r2, [r3, #28]
	.loc 2 222 0
	add	r3, r7, #2
	ldrb	r3, [r3]
	sxtb	r3, r3
	cmp	r3, #1
	bne	.L72
	.loc 2 223 0
	ldr	r2, .L74+4
	ldr	r3, .L74+4
	ldrh	r3, [r3]
	uxth	r3, r3
	mov	r1, #128
	orr	r3, r1
	uxth	r3, r3
	strh	r3, [r2]
.L72:
	.loc 2 226 0
	ldr	r3, .L74+4
	add	r2, r7, #6
	ldrh	r2, [r2]
	str	r2, [r3, #44]
	.loc 2 227 0
	ldr	r2, .L74+4
	add	r3, r7, #4
	ldrh	r3, [r3]
	strh	r3, [r2, #40]
	.loc 2 229 0
	add	r3, r7, #3
	ldrb	r3, [r3]
	sxtb	r3, r3
	cmp	r3, #1
	bne	.L73
	.loc 2 230 0
	ldr	r2, .L74+4
	ldr	r3, .L74+4
	ldrh	r3, [r3, #12]
	uxth	r3, r3
	mov	r1, #1
	orr	r3, r1
	uxth	r3, r3
	strh	r3, [r2, #12]
	.loc 2 231 0
	mov	r0, #17
	bl	NVIC_EnableIRQ
.L73:
	.loc 2 235 0
	ldr	r2, .L74+4
	ldr	r3, .L74+4
	ldrh	r3, [r3]
	uxth	r3, r3
	mov	r1, #1
	orr	r3, r1
	uxth	r3, r3
	strh	r3, [r2]
	.loc 2 236 0
	mov	sp, r7
	add	sp, sp, #8
	@ sp needed
	pop	{r4, r5, r7, pc}
.L75:
	.align	2
.L74:
	.word	1073876992
	.word	1073745920
	.cfi_endproc
.LFE43:
	.size	initTIM6, .-initTIM6
	.align	2
	.global	clearInterruptTIM6
	.code	16
	.thumb_func
	.type	clearInterruptTIM6, %function
clearInterruptTIM6:
.LFB44:
	.loc 2 258 0
	.cfi_startproc
	push	{r7, lr}
	.cfi_def_cfa_offset 8
	.cfi_offset 7, -8
	.cfi_offset 14, -4
	add	r7, sp, #0
	.cfi_def_cfa_register 7
	.loc 2 259 0
	ldr	r2, .L77
	ldr	r3, .L77
	ldrh	r3, [r3, #16]
	uxth	r3, r3
	mov	r1, #1
	bic	r3, r1
	uxth	r3, r3
	strh	r3, [r2, #16]
	.loc 2 260 0
	mov	sp, r7
	@ sp needed
	pop	{r7, pc}
.L78:
	.align	2
.L77:
	.word	1073745920
	.cfi_endproc
.LFE44:
	.size	clearInterruptTIM6, .-clearInterruptTIM6
.Letext0:
	.file 3 "c:\\program files (x86)\\gnu tools arm embedded\\4.9 2015q2\\arm-none-eabi\\include\\machine\\_default_types.h"
	.file 4 "c:\\program files (x86)\\gnu tools arm embedded\\4.9 2015q2\\arm-none-eabi\\include\\sys\\_stdint.h"
	.file 5 "./Libraries/stm32f0xx.h"
	.file 6 "./Libraries/woodboxstm32f051C6.h"